; Function Attrs: mustprogress uwtable
define hidden void @_Z14filterBlurringRKN2cv3MatERS0_(ptr noundef nonnull align 8 dereferenceable(96) %0, ptr noundef nonnull align 8 dereferenceable(96) %1) #3 personality ptr @__gxx_personality_v0 {
  %3 = alloca %"class.cv::_InputArray", align 8
  %4 = alloca %"class.cv::_InputArray", align 8
  %5 = alloca %"class.cv::_OutputArray", align 8
  %6 = getelementptr inbounds nuw i8, ptr %3, i64 16
  store i32 0, ptr %6, align 8
  %7 = getelementptr inbounds nuw i8, ptr %3, i64 20
  store i32 0, ptr %7, align 4
  store i32 16842752, ptr %3, align 8
  %8 = getelementptr inbounds nuw i8, ptr %3, i64 8
  store ptr %0, ptr %8, align 8
  %9 = getelementptr inbounds nuw i8, ptr %4, i64 16
  store i32 0, ptr %9, align 8
  %10 = getelementptr inbounds nuw i8, ptr %4, i64 20
  store i32 0, ptr %10, align 4
  store i32 16842752, ptr %4, align 8
  %11 = getelementptr inbounds nuw i8, ptr %4, i64 8
  store ptr %0, ptr %11, align 8
  %12 = getelementptr inbounds nuw i8, ptr %5, i64 8
  %13 = getelementptr inbounds nuw i8, ptr %5, i64 16
  store i64 0, ptr %13, align 8
  store i32 33619968, ptr %5, align 8
  store ptr %1, ptr %12, align 8
  %14 = load i32, ptr @g_sigmaSpatial, align 4
  %15 = sitofp i32 %14 to double
  %16 = load i32, ptr @g_sigmaColor, align 4
  %17 = sitofp i32 %16 to double
  call void @_ZN2cv8ximgproc8dtFilterERKNS_11_InputArrayES3_RKNS_12_OutputArrayEddii(ptr noundef nonnull align 8 dereferenceable(24) %3, ptr noundef nonnull align 8 dereferenceable(24) %4, ptr noundef nonnull align 8 dereferenceable(24) %5, double noundef %15, double noundef %17, i32 noundef 2, i32 noundef 3)
  ret void
}